; ModuleID = 'source-C-CXX/3/710.cpp'
source_filename = "source-C-CXX/3/710.cpp"
target datalayout = "e-m:e-p270:32:32-p271:32:32-p272:64:64-i64:64-f80:128-n8:16:32:64-S128"
target triple = "x86_64-pc-linux-gnu"

%"class.std::ios_base::Init" = type { i8 }
%"class.std::basic_istream" = type { i32 (...)**, i64, %"class.std::basic_ios" }
%"class.std::basic_ios" = type { %"class.std::ios_base", %"class.std::basic_ostream"*, i8, i8, %"class.std::basic_streambuf"*, %"class.std::ctype"*, %"class.std::num_put"*, %"class.std::num_get"* }
%"class.std::ios_base" = type { i32 (...)**, i64, i64, i32, i32, i32, %"struct.std::ios_base::_Callback_list"*, %"struct.std::ios_base::_Words", [8 x %"struct.std::ios_base::_Words"], i32, %"struct.std::ios_base::_Words"*, %"class.std::locale" }
%"struct.std::ios_base::_Callback_list" = type { %"struct.std::ios_base::_Callback_list"*, void (i32, %"class.std::ios_base"*, i32)*, i32, i32 }
%"struct.std::ios_base::_Words" = type { i8*, i64 }
%"class.std::locale" = type { %"class.std::locale::_Impl"* }
%"class.std::locale::_Impl" = type { i32, %"class.std::locale::facet"**, i64, %"class.std::locale::facet"**, i8** }
%"class.std::locale::facet" = type <{ i32 (...)**, i32, [4 x i8] }>
%"class.std::basic_ostream" = type { i32 (...)**, %"class.std::basic_ios" }
%"class.std::basic_streambuf" = type { i32 (...)**, i8*, i8*, i8*, i8*, i8*, i8*, %"class.std::locale" }
%"class.std::ctype" = type <{ %"class.std::locale::facet.base", [4 x i8], %struct.__locale_struct*, i8, [7 x i8], i32*, i32*, i16*, i8, [256 x i8], [256 x i8], i8, [6 x i8] }>
%"class.std::locale::facet.base" = type <{ i32 (...)**, i32 }>
%struct.__locale_struct = type { [13 x %struct.__locale_data*], i16*, i32*, i32*, [13 x i8*] }
%struct.__locale_data = type opaque
%"class.std::num_put" = type { %"class.std::locale::facet.base", [4 x i8] }
%"class.std::num_get" = type { %"class.std::locale::facet.base", [4 x i8] }

@_ZStL8__ioinit = internal global %"class.std::ios_base::Init" zeroinitializer, align 1
@__dso_handle = external hidden global i8
@_ZSt3cin = external global %"class.std::basic_istream", align 8
@_ZSt4cout = external global %"class.std::basic_ostream", align 8
@llvm.global_ctors = appending global [1 x { i32, void ()*, i8* }] [{ i32, void ()*, i8* } { i32 65535, void ()* @_GLOBAL__sub_I_710.cpp, i8* null }]

declare void @_ZNSt8ios_base4InitC1Ev(%"class.std::ios_base::Init"* nonnull align 1 dereferenceable(1)) unnamed_addr #0

; Function Attrs: nounwind
declare void @_ZNSt8ios_base4InitD1Ev(%"class.std::ios_base::Init"* nonnull align 1 dereferenceable(1)) unnamed_addr #1

; Function Attrs: nofree nounwind
declare i32 @__cxa_atexit(void (i8*)*, i8*, i8*) local_unnamed_addr #2

; Function Attrs: mustprogress norecurse sspstrong uwtable
define dso_local i32 @main() local_unnamed_addr #3 {
  %1 = alloca i32, align 4
  %2 = alloca i32, align 4
  %3 = bitcast i32* %1 to i8*
  call void @llvm.lifetime.start.p0i8(i64 4, i8* nonnull %3) #8
  %4 = bitcast i32* %2 to i8*
  call void @llvm.lifetime.start.p0i8(i64 4, i8* nonnull %4) #8
  %5 = call nonnull align 8 dereferenceable(16) %"class.std::basic_istream"* @_ZNSirsERi(%"class.std::basic_istream"* nonnull align 8 dereferenceable(16) @_ZSt3cin, i32* nonnull align 4 dereferenceable(4) %2)
  %6 = call nonnull align 8 dereferenceable(16) %"class.std::basic_istream"* @_ZNSirsERi(%"class.std::basic_istream"* nonnull align 8 dereferenceable(16) %5, i32* nonnull align 4 dereferenceable(4) %1)
  %7 = load i32, i32* %1, align 4, !tbaa !5
  %8 = load i32, i32* %2, align 4, !tbaa !5
  %9 = zext i32 %8 to i64
  %10 = zext i32 %7 to i64
  %11 = call i8* @llvm.stacksave()
  %12 = mul nuw i64 %9, %10
  %13 = alloca i32, i64 %12, align 16
  %14 = icmp sgt i32 %8, 0
  %15 = icmp sgt i32 %7, 0
  %16 = xor i1 %14, true
  %17 = select i1 %14, i1 %15, i1 false
  %18 = select i1 %16, i1 %15, i1 false
  br i1 %17, label %19, label %42

19:                                               ; preds = %0, %29
  %20 = phi i64 [ %30, %29 ], [ 0, %0 ]
  %21 = mul nuw nsw i64 %20, %10
  br label %22

22:                                               ; preds = %19, %22
  %23 = phi i64 [ 0, %19 ], [ %27, %22 ]
  %24 = add nuw nsw i64 %21, %23
  %25 = getelementptr inbounds i32, i32* %13, i64 %24
  %26 = call nonnull align 8 dereferenceable(16) %"class.std::basic_istream"* @_ZNSirsERi(%"class.std::basic_istream"* nonnull align 8 dereferenceable(16) @_ZSt3cin, i32* nonnull align 4 dereferenceable(4) %25)
  %27 = add nuw nsw i64 %23, 1
  %28 = icmp eq i64 %27, %10
  br i1 %28, label %29, label %22, !llvm.loop !9

29:                                               ; preds = %22
  %30 = add nuw nsw i64 %20, 1
  %31 = icmp eq i64 %30, %9
  br i1 %31, label %32, label %19, !llvm.loop !11

32:                                               ; preds = %29
  %33 = icmp slt i32 %7, 1
  %34 = xor i1 %14, true
  %35 = select i1 %33, i1 true, i1 %34
  %36 = xor i1 %33, true
  br i1 %35, label %42, label %37

37:                                               ; preds = %32
  %38 = zext i32 %8 to i64
  br label %39

39:                                               ; preds = %146, %37
  %40 = phi i64 [ 0, %37 ], [ %147, %146 ]
  %41 = trunc i64 %40 to i32
  br label %101

42:                                               ; preds = %146, %0, %32
  %43 = phi i1 [ %36, %32 ], [ %18, %0 ], [ true, %146 ]
  %44 = add i32 %7, -2
  %45 = add i32 %44, %8
  %46 = icmp sgt i32 %7, %45
  %47 = xor i1 %43, true
  %48 = select i1 %46, i1 true, i1 %47
  br i1 %48, label %150, label %49

49:                                               ; preds = %42
  %50 = add i32 %8, %7
  %51 = add i32 %50, -1
  br label %52

52:                                               ; preds = %49, %60
  %53 = phi i32 [ %61, %60 ], [ %7, %49 ]
  br label %54

54:                                               ; preds = %52, %95
  %55 = phi i64 [ %10, %52 ], [ %100, %95 ]
  %56 = phi i32 [ %7, %52 ], [ %57, %95 ]
  %57 = add nsw i32 %56, -1
  %58 = sub nsw i32 %53, %57
  %59 = icmp slt i32 %58, %8
  br i1 %59, label %63, label %60

60:                                               ; preds = %95, %54
  %61 = add i32 %53, 1
  %62 = icmp eq i32 %61, %51
  br i1 %62, label %150, label %52, !llvm.loop !12

63:                                               ; preds = %54
  %64 = sext i32 %58 to i64
  %65 = mul nsw i64 %64, %10
  %66 = zext i32 %57 to i64
  %67 = add nsw i64 %65, %66
  %68 = getelementptr inbounds i32, i32* %13, i64 %67
  %69 = load i32, i32* %68, align 4, !tbaa !5
  %70 = call nonnull align 8 dereferenceable(8) %"class.std::basic_ostream"* @_ZNSolsEi(%"class.std::basic_ostream"* nonnull align 8 dereferenceable(8) @_ZSt4cout, i32 %69)
  %71 = bitcast %"class.std::basic_ostream"* %70 to i8**
  %72 = load i8*, i8** %71, align 8, !tbaa !13
  %73 = getelementptr i8, i8* %72, i64 -24
  %74 = bitcast i8* %73 to i64*
  %75 = load i64, i64* %74, align 8
  %76 = bitcast %"class.std::basic_ostream"* %70 to i8*
  %77 = add nsw i64 %75, 240
  %78 = getelementptr inbounds i8, i8* %76, i64 %77
  %79 = bitcast i8* %78 to %"class.std::ctype"**
  %80 = load %"class.std::ctype"*, %"class.std::ctype"** %79, align 8, !tbaa !15
  %81 = icmp eq %"class.std::ctype"* %80, null
  br i1 %81, label %149, label %82

82:                                               ; preds = %63
  %83 = getelementptr inbounds %"class.std::ctype", %"class.std::ctype"* %80, i64 0, i32 8
  %84 = load i8, i8* %83, align 8, !tbaa !19
  %85 = icmp eq i8 %84, 0
  br i1 %85, label %89, label %86

86:                                               ; preds = %82
  %87 = getelementptr inbounds %"class.std::ctype", %"class.std::ctype"* %80, i64 0, i32 9, i64 10
  %88 = load i8, i8* %87, align 1, !tbaa !21
  br label %95

89:                                               ; preds = %82
  call void @_ZNKSt5ctypeIcE13_M_widen_initEv(%"class.std::ctype"* nonnull align 8 dereferenceable(570) %80)
  %90 = bitcast %"class.std::ctype"* %80 to i8 (%"class.std::ctype"*, i8)***
  %91 = load i8 (%"class.std::ctype"*, i8)**, i8 (%"class.std::ctype"*, i8)*** %90, align 8, !tbaa !13
  %92 = getelementptr inbounds i8 (%"class.std::ctype"*, i8)*, i8 (%"class.std::ctype"*, i8)** %91, i64 6
  %93 = load i8 (%"class.std::ctype"*, i8)*, i8 (%"class.std::ctype"*, i8)** %92, align 8
  %94 = call signext i8 %93(%"class.std::ctype"* nonnull align 8 dereferenceable(570) %80, i8 signext 10)
  br label %95

95:                                               ; preds = %89, %86
  %96 = phi i8 [ %88, %86 ], [ %94, %89 ]
  %97 = call nonnull align 8 dereferenceable(8) %"class.std::basic_ostream"* @_ZNSo3putEc(%"class.std::basic_ostream"* nonnull align 8 dereferenceable(8) %70, i8 signext %96)
  %98 = call nonnull align 8 dereferenceable(8) %"class.std::basic_ostream"* @_ZNSo5flushEv(%"class.std::basic_ostream"* nonnull align 8 dereferenceable(8) %97)
  %99 = icmp sgt i64 %55, 1
  %100 = add nsw i64 %55, -1
  br i1 %99, label %54, label %60, !llvm.loop !22

101:                                              ; preds = %39, %136
  %102 = phi i64 [ 0, %39 ], [ %140, %136 ]
  %103 = phi i32 [ %41, %39 ], [ %143, %136 ]
  %104 = phi i32 [ 0, %39 ], [ %141, %136 ]
  %105 = mul nuw nsw i64 %102, %10
  %106 = zext i32 %103 to i64
  %107 = add nuw nsw i64 %105, %106
  %108 = getelementptr inbounds i32, i32* %13, i64 %107
  %109 = load i32, i32* %108, align 4, !tbaa !5
  %110 = call nonnull align 8 dereferenceable(8) %"class.std::basic_ostream"* @_ZNSolsEi(%"class.std::basic_ostream"* nonnull align 8 dereferenceable(8) @_ZSt4cout, i32 %109)
  %111 = bitcast %"class.std::basic_ostream"* %110 to i8**
  %112 = load i8*, i8** %111, align 8, !tbaa !13
  %113 = getelementptr i8, i8* %112, i64 -24
  %114 = bitcast i8* %113 to i64*
  %115 = load i64, i64* %114, align 8
  %116 = bitcast %"class.std::basic_ostream"* %110 to i8*
  %117 = add nsw i64 %115, 240
  %118 = getelementptr inbounds i8, i8* %116, i64 %117
  %119 = bitcast i8* %118 to %"class.std::ctype"**
  %120 = load %"class.std::ctype"*, %"class.std::ctype"** %119, align 8, !tbaa !15
  %121 = icmp eq %"class.std::ctype"* %120, null
  br i1 %121, label %122, label %123

122:                                              ; preds = %101
  call void @_ZSt16__throw_bad_castv() #9
  unreachable

123:                                              ; preds = %101
  %124 = getelementptr inbounds %"class.std::ctype", %"class.std::ctype"* %120, i64 0, i32 8
  %125 = load i8, i8* %124, align 8, !tbaa !19
  %126 = icmp eq i8 %125, 0
  br i1 %126, label %130, label %127

127:                                              ; preds = %123
  %128 = getelementptr inbounds %"class.std::ctype", %"class.std::ctype"* %120, i64 0, i32 9, i64 10
  %129 = load i8, i8* %128, align 1, !tbaa !21
  br label %136

130:                                              ; preds = %123
  call void @_ZNKSt5ctypeIcE13_M_widen_initEv(%"class.std::ctype"* nonnull align 8 dereferenceable(570) %120)
  %131 = bitcast %"class.std::ctype"* %120 to i8 (%"class.std::ctype"*, i8)***
  %132 = load i8 (%"class.std::ctype"*, i8)**, i8 (%"class.std::ctype"*, i8)*** %131, align 8, !tbaa !13
  %133 = getelementptr inbounds i8 (%"class.std::ctype"*, i8)*, i8 (%"class.std::ctype"*, i8)** %132, i64 6
  %134 = load i8 (%"class.std::ctype"*, i8)*, i8 (%"class.std::ctype"*, i8)** %133, align 8
  %135 = call signext i8 %134(%"class.std::ctype"* nonnull align 8 dereferenceable(570) %120, i8 signext 10)
  br label %136

136:                                              ; preds = %127, %130
  %137 = phi i8 [ %129, %127 ], [ %135, %130 ]
  %138 = call nonnull align 8 dereferenceable(8) %"class.std::basic_ostream"* @_ZNSo3putEc(%"class.std::basic_ostream"* nonnull align 8 dereferenceable(8) %110, i8 signext %137)
  %139 = call nonnull align 8 dereferenceable(8) %"class.std::basic_ostream"* @_ZNSo5flushEv(%"class.std::basic_ostream"* nonnull align 8 dereferenceable(8) %138)
  %140 = add nuw nsw i64 %102, 1
  %141 = add nuw nsw i32 %104, 1
  %142 = icmp ult i64 %140, %38
  %143 = sub nsw i32 %41, %141
  %144 = icmp ugt i64 %40, %102
  %145 = select i1 %142, i1 %144, i1 false
  br i1 %145, label %101, label %146, !llvm.loop !23

146:                                              ; preds = %136
  %147 = add nuw nsw i64 %40, 1
  %148 = icmp eq i64 %147, %10
  br i1 %148, label %42, label %39, !llvm.loop !24

149:                                              ; preds = %63
  call void @_ZSt16__throw_bad_castv() #9
  unreachable

150:                                              ; preds = %60, %42
  call void @llvm.stackrestore(i8* %11)
  call void @llvm.lifetime.end.p0i8(i64 4, i8* nonnull %4) #8
  call void @llvm.lifetime.end.p0i8(i64 4, i8* nonnull %3) #8
  ret i32 0
}

; Function Attrs: argmemonly mustprogress nofree nosync nounwind willreturn
declare void @llvm.lifetime.start.p0i8(i64 immarg, i8* nocapture) #4

declare nonnull align 8 dereferenceable(16) %"class.std::basic_istream"* @_ZNSirsERi(%"class.std::basic_istream"* nonnull align 8 dereferenceable(16), i32* nonnull align 4 dereferenceable(4)) local_unnamed_addr #0

; Function Attrs: mustprogress nofree nosync nounwind willreturn
declare i8* @llvm.stacksave() #5

declare nonnull align 8 dereferenceable(8) %"class.std::basic_ostream"* @_ZNSolsEi(%"class.std::basic_ostream"* nonnull align 8 dereferenceable(8), i32) local_unnamed_addr #0

; Function Attrs: mustprogress nofree nosync nounwind willreturn
declare void @llvm.stackrestore(i8*) #5

; Function Attrs: argmemonly mustprogress nofree nosync nounwind willreturn
declare void @llvm.lifetime.end.p0i8(i64 immarg, i8* nocapture) #4

declare nonnull align 8 dereferenceable(8) %"class.std::basic_ostream"* @_ZNSo3putEc(%"class.std::basic_ostream"* nonnull align 8 dereferenceable(8), i8 signext) local_unnamed_addr #0

declare nonnull align 8 dereferenceable(8) %"class.std::basic_ostream"* @_ZNSo5flushEv(%"class.std::basic_ostream"* nonnull align 8 dereferenceable(8)) local_unnamed_addr #0

; Function Attrs: noreturn
declare void @_ZSt16__throw_bad_castv() local_unnamed_addr #6

declare void @_ZNKSt5ctypeIcE13_M_widen_initEv(%"class.std::ctype"* nonnull align 8 dereferenceable(570)) local_unnamed_addr #0

; Function Attrs: sspstrong uwtable
define internal void @_GLOBAL__sub_I_710.cpp() #7 section ".text.startup" {
  tail call void @_ZNSt8ios_base4InitC1Ev(%"class.std::ios_base::Init"* nonnull align 1 dereferenceable(1) @_ZStL8__ioinit)
  %1 = tail call i32 @__cxa_atexit(void (i8*)* bitcast (void (%"class.std::ios_base::Init"*)* @_ZNSt8ios_base4InitD1Ev to void (i8*)*), i8* getelementptr inbounds (%"class.std::ios_base::Init", %"class.std::ios_base::Init"* @_ZStL8__ioinit, i64 0, i32 0), i8* nonnull @__dso_handle) #8
  ret void
}


!llvm.module.flags = !{!0, !1, !2, !3}
!llvm.ident = !{!4}

!0 = !{i32 1, !"wchar_size", i32 4}
!1 = !{i32 7, !"PIC Level", i32 2}
!2 = !{i32 7, !"PIE Level", i32 2}
!3 = !{i32 7, !"uwtable", i32 1}
!4 = !{!"clang version 13.0.0"}
!5 = !{!6, !6, i64 0}
!6 = !{!"int", !7, i64 0}
!7 = !{!"omnipotent char", !8, i64 0}
!8 = !{!"Simple C++ TBAA"}
!9 = distinct !{!9, !10}
!10 = !{!"llvm.loop.mustprogress"}
!11 = distinct !{!11, !10}
!12 = distinct !{!12, !10}
!13 = !{!14, !14, i64 0}
!14 = !{!"vtable pointer", !8, i64 0}
!15 = !{!16, !17, i64 240}
!16 = !{!"_ZTSSt9basic_iosIcSt11char_traitsIcEE", !17, i64 216, !7, i64 224, !18, i64 225, !17, i64 232, !17, i64 240, !17, i64 248, !17, i64 256}
!17 = !{!"any pointer", !7, i64 0}
!18 = !{!"bool", !7, i64 0}
!19 = !{!20, !7, i64 56}
!20 = !{!"_ZTSSt5ctypeIcE", !17, i64 16, !18, i64 24, !17, i64 32, !17, i64 40, !17, i64 48, !7, i64 56, !7, i64 57, !7, i64 313, !7, i64 569}
!21 = !{!7, !7, i64 0}
!22 = distinct !{!22, !10}
!23 = distinct !{!23, !10}
!24 = distinct !{!24, !10}
